; Function Attrs: nounwind uwtable
define dso_local void @hashfile_checkpoint_init(ptr noundef readonly captures(none) %0, ptr noundef initializes((0, 2408)) %1) local_unnamed_addr #0 {
  tail call void @llvm.memset.p0.i64(ptr noundef nonnull align 8 dereferenceable(2408) %1, i8 0, i64 2408, i1 false)
  %3 = getelementptr inbounds nuw i8, ptr %0, i64 2472
  %4 = load ptr, ptr %3, align 8, !tbaa !15
  %5 = getelementptr inbounds nuw i8, ptr %4, i64 40
  %6 = load ptr, ptr %5, align 8, !tbaa !53
  %7 = getelementptr inbounds nuw i8, ptr %1, i64 8
  tail call void %6(ptr noundef nonnull %7) #13
  ret void
}